target datalayout = "e-m:e-p270:32:32-p271:32:32-p272:64:64-i64:64-i128:128-f80:128-n8:16:32:64-S128"
target triple = "x86_64-unknown-linux-gnu"

%"struct.facebook::velox::StringView" = type { i32, [4 x i8], %union.anon.225 }
%union.anon.225 = type { ptr }
%class.anon.232 = type { ptr, ptr, ptr, ptr, ptr, ptr }
%class.anon.234 = type { i8, ptr, %class.anon.232 }

; Function Attrs: mustprogress nounwind uwtable
define linkonce_odr noundef i64 @_ZNK8facebook5velox10StringView14inlinedAsInt64Ev(ptr noundef nonnull align 8 dereferenceable(16) %this) #2 comdat align 2 {
entry:
  %this.addr = alloca ptr, align 8
  store ptr %this, ptr %this.addr, align 8
  %this1 = load ptr, ptr %this.addr, align 8
  %arrayidx = getelementptr inbounds i64, ptr %this1, i64 1
  %0 = load i64, ptr %arrayidx, align 8
  ret i64 %0
}

; Function Attrs: mustprogress uwtable
define linkonce_odr noundef zeroext i1 @_ZNK8facebook5velox10StringView8isInlineEv(ptr noundef nonnull align 8 dereferenceable(16) %this) #0 comdat align 2 {
entry:
  %size.addr.i = alloca i32, align 4
  %this.addr = alloca ptr, align 8
  store ptr %this, ptr %this.addr, align 8
  %this1 = load ptr, ptr %this.addr, align 8
  %size_ = getelementptr inbounds %"struct.facebook::velox::StringView", ptr %this1, i32 0, i32 0
  %0 = load i32, ptr %size_, align 8
  store i32 %0, ptr %size.addr.i, align 4
  %1 = load i32, ptr %size.addr.i, align 4
  %conv.i = zext i32 %1 to i64
  %cmp.i = icmp ule i64 %conv.i, 12
  ret i1 %cmp.i
}

; Function Attrs: mustprogress nounwind uwtable
define linkonce_odr noundef i64 @_ZNK8facebook5velox10StringView20sizeAndPrefixAsInt64Ev(ptr noundef nonnull align 8 dereferenceable(16) %this) #2 comdat align 2 {
entry:
  %this.addr = alloca ptr, align 8
  store ptr %this, ptr %this.addr, align 8
  %this1 = load ptr, ptr %this.addr, align 8
  %arrayidx = getelementptr inbounds i64, ptr %this1, i64 0
  %0 = load i64, ptr %arrayidx, align 8
  ret i64 %0
}

; Function Attrs: mustprogress uwtable
define linkonce_odr noundef zeroext i1 @_ZNK8facebook5velox10StringVieweqERKS1_(ptr noundef nonnull align 8 dereferenceable(16) %this, ptr noundef nonnull align 8 dereferenceable(16) %other) #0 comdat align 2 {
entry:
  %retval = alloca i1, align 1
  %this.addr = alloca ptr, align 8
  %other.addr = alloca ptr, align 8
  store ptr %this, ptr %this.addr, align 8
  store ptr %other, ptr %other.addr, align 8
  %this1 = load ptr, ptr %this.addr, align 8
  %call = call noundef i64 @_ZNK8facebook5velox10StringView20sizeAndPrefixAsInt64Ev(ptr noundef nonnull align 8 dereferenceable(16) %this1)
  %0 = load ptr, ptr %other.addr, align 8
  %call2 = call noundef i64 @_ZNK8facebook5velox10StringView20sizeAndPrefixAsInt64Ev(ptr noundef nonnull align 8 dereferenceable(16) %0)
  %cmp = icmp ne i64 %call, %call2
  br i1 %cmp, label %if.then, label %if.end

if.then:                                          ; preds = %entry
  store i1 false, ptr %retval, align 1
  br label %return

if.end:                                           ; preds = %entry
  %call3 = call noundef zeroext i1 @_ZNK8facebook5velox10StringView8isInlineEv(ptr noundef nonnull align 8 dereferenceable(16) %this1)
  br i1 %call3, label %if.then4, label %if.end9

if.then4:                                         ; preds = %if.end
  %size_ = getelementptr inbounds %"struct.facebook::velox::StringView", ptr %this1, i32 0, i32 0
  %1 = load i32, ptr %size_, align 8
  %conv = zext i32 %1 to i64
  %cmp5 = icmp ule i64 %conv, 4
  br i1 %cmp5, label %lor.end, label %lor.rhs

lor.rhs:                                          ; preds = %if.then4
  %call6 = call noundef i64 @_ZNK8facebook5velox10StringView14inlinedAsInt64Ev(ptr noundef nonnull align 8 dereferenceable(16) %this1)
  %2 = load ptr, ptr %other.addr, align 8
  %call7 = call noundef i64 @_ZNK8facebook5velox10StringView14inlinedAsInt64Ev(ptr noundef nonnull align 8 dereferenceable(16) %2)
  %cmp8 = icmp eq i64 %call6, %call7
  br label %lor.end

lor.end:                                          ; preds = %lor.rhs, %if.then4
  %3 = phi i1 [ true, %if.then4 ], [ %cmp8, %lor.rhs ]
  store i1 %3, ptr %retval, align 1
  br label %return

if.end9:                                          ; preds = %if.end
  %value_ = getelementptr inbounds %"struct.facebook::velox::StringView", ptr %this1, i32 0, i32 2
  %4 = load ptr, ptr %value_, align 8
  %add.ptr = getelementptr inbounds i8, ptr %4, i64 4
  %5 = load ptr, ptr %other.addr, align 8
  %value_10 = getelementptr inbounds %"struct.facebook::velox::StringView", ptr %5, i32 0, i32 2
  %6 = load ptr, ptr %value_10, align 8
  %add.ptr11 = getelementptr inbounds i8, ptr %6, i64 4
  %size_12 = getelementptr inbounds %"struct.facebook::velox::StringView", ptr %this1, i32 0, i32 0
  %7 = load i32, ptr %size_12, align 8
  %conv13 = zext i32 %7 to i64
  %sub = sub i64 %conv13, 4
  %call14 = call i32 @memcmp(ptr noundef %add.ptr, ptr noundef %add.ptr11, i64 noundef %sub) #11
  %cmp15 = icmp eq i32 %call14, 0
  store i1 %cmp15, ptr %retval, align 1
  br label %return

return:                                           ; preds = %if.end9, %lor.end, %if.then
  %8 = load i1, ptr %retval, align 1
  ret i1 %8
}

; Function Attrs: mustprogress uwtable
define internal void @_ZZN8facebook5velox9functions12_GLOBAL__N_110applyTypedILNS0_8TypeKindE8EEEvRKNS0_17SelectivityVectorERNS0_13DecodedVectorES9_S9_RNS0_4exec7EvalCtxERNS0_10FlatVectorIbEEENKUlT_E_clIiEEDaSG_(ptr noundef nonnull align 8 dereferenceable(48) %this, i32 noundef %row) #0 align 2 {
entry:
  %this.addr = alloca ptr, align 8
  %row.addr = alloca i32, align 4
  %size = alloca i32, align 4
  %offset = alloca i32, align 4
  %i = alloca i32, align 4
  store ptr %this, ptr %this.addr, align 8
  store i32 %row, ptr %row.addr, align 4
  %this1 = load ptr, ptr %this.addr, align 8
  %0 = getelementptr inbounds %class.anon.232, ptr %this1, i32 0, i32 0
  %1 = load ptr, ptr %0, align 8
  %2 = load ptr, ptr %1, align 8
  %3 = getelementptr inbounds %class.anon.232, ptr %this1, i32 0, i32 1
  %4 = load ptr, ptr %3, align 8
  %5 = load ptr, ptr %4, align 8
  %6 = load i32, ptr %row.addr, align 4
  %idxprom = sext i32 %6 to i64
  %arrayidx = getelementptr inbounds i32, ptr %5, i64 %idxprom
  %7 = load i32, ptr %arrayidx, align 4
  %idxprom2 = sext i32 %7 to i64
  %arrayidx3 = getelementptr inbounds i32, ptr %2, i64 %idxprom2
  %8 = load i32, ptr %arrayidx3, align 4
  store i32 %8, ptr %size, align 4
  %9 = getelementptr inbounds %class.anon.232, ptr %this1, i32 0, i32 2
  %10 = load ptr, ptr %9, align 8
  %11 = load ptr, ptr %10, align 8
  %12 = getelementptr inbounds %class.anon.232, ptr %this1, i32 0, i32 1
  %13 = load ptr, ptr %12, align 8
  %14 = load ptr, ptr %13, align 8
  %15 = load i32, ptr %row.addr, align 4
  %idxprom4 = sext i32 %15 to i64
  %arrayidx5 = getelementptr inbounds i32, ptr %14, i64 %idxprom4
  %16 = load i32, ptr %arrayidx5, align 4
  %idxprom6 = sext i32 %16 to i64
  %arrayidx7 = getelementptr inbounds i32, ptr %11, i64 %idxprom6
  %17 = load i32, ptr %arrayidx7, align 4
  store i32 %17, ptr %offset, align 4
  store i32 0, ptr %i, align 4
  br label %for.cond

for.cond:                                         ; preds = %for.inc, %entry
  %18 = load i32, ptr %i, align 4
  %19 = load i32, ptr %size, align 4
  %cmp = icmp slt i32 %18, %19
  br i1 %cmp, label %for.body, label %for.end

for.body:                                         ; preds = %for.cond
  %20 = getelementptr inbounds %class.anon.232, ptr %this1, i32 0, i32 3
  %21 = load ptr, ptr %20, align 8
  %22 = load ptr, ptr %21, align 8
  %23 = load i32, ptr %offset, align 4
  %24 = load i32, ptr %i, align 4
  %add = add nsw i32 %23, %24
  %idxprom8 = sext i32 %add to i64
  %arrayidx9 = getelementptr inbounds %"struct.facebook::velox::StringView", ptr %22, i64 %idxprom8
  %25 = getelementptr inbounds %class.anon.232, ptr %this1, i32 0, i32 4
  %26 = load ptr, ptr %25, align 8
  %call = call noundef zeroext i1 @_ZNK8facebook5velox10StringVieweqERKS1_(ptr noundef nonnull align 8 dereferenceable(16) %arrayidx9, ptr noundef nonnull align 8 dereferenceable(16) %26)
  br i1 %call, label %if.then, label %if.end

if.then:                                          ; preds = %for.body
  %27 = getelementptr inbounds %class.anon.232, ptr %this1, i32 0, i32 5
  %28 = load ptr, ptr %27, align 8
  %29 = load i32, ptr %row.addr, align 4
  call void @_ZN8facebook5velox10FlatVectorIbE3setEib(ptr noundef nonnull align 8 dereferenceable(184) %28, i32 noundef %29, i1 noundef zeroext true)
  br label %return

if.end:                                           ; preds = %for.body
  br label %for.inc

for.inc:                                          ; preds = %if.end
  %30 = load i32, ptr %i, align 4
  %inc = add nsw i32 %30, 1
  store i32 %inc, ptr %i, align 4
  br label %for.cond, !llvm.loop !144

for.end:                                          ; preds = %for.cond
  %31 = getelementptr inbounds %class.anon.232, ptr %this1, i32 0, i32 5
  %32 = load ptr, ptr %31, align 8
  %33 = load i32, ptr %row.addr, align 4
  call void @_ZN8facebook5velox10FlatVectorIbE3setEib(ptr noundef nonnull align 8 dereferenceable(184) %32, i32 noundef %33, i1 noundef zeroext false)
  br label %return

return:                                           ; preds = %for.end, %if.then
  ret void
}

; Function Attrs: mustprogress uwtable
define internal void @_ZZN8facebook5velox4bits10forEachBitIZNS0_9functions12_GLOBAL__N_110applyTypedILNS0_8TypeKindE8EEEvRKNS0_17SelectivityVectorERNS0_13DecodedVectorESB_SB_RNS0_4exec7EvalCtxERNS0_10FlatVectorIbEEEUlT_E_EEvPKmiibSI_ENKUlimE_clEim(ptr noundef nonnull align 8 dereferenceable(64) %this, i32 noundef %idx, i64 noundef %mask) #0 align 2 {
entry:
  %this.addr = alloca ptr, align 8
  %idx.addr = alloca i32, align 4
  %mask.addr = alloca i64, align 8
  %word = alloca i64, align 8
  store ptr %this, ptr %this.addr, align 8
  store i32 %idx, ptr %idx.addr, align 4
  store i64 %mask, ptr %mask.addr, align 8
  %this1 = load ptr, ptr %this.addr, align 8
  %0 = getelementptr inbounds %class.anon.234, ptr %this1, i32 0, i32 0
  %1 = load i8, ptr %0, align 8
  %tobool = trunc i8 %1 to i1
  br i1 %tobool, label %cond.true, label %cond.false

cond.true:                                        ; preds = %entry
  %2 = getelementptr inbounds %class.anon.234, ptr %this1, i32 0, i32 1
  %3 = load ptr, ptr %2, align 8
  %4 = load i32, ptr %idx.addr, align 4
  %idxprom = sext i32 %4 to i64
  %arrayidx = getelementptr inbounds i64, ptr %3, i64 %idxprom
  %5 = load i64, ptr %arrayidx, align 8
  br label %cond.end

cond.false:                                       ; preds = %entry
  %6 = getelementptr inbounds %class.anon.234, ptr %this1, i32 0, i32 1
  %7 = load ptr, ptr %6, align 8
  %8 = load i32, ptr %idx.addr, align 4
  %idxprom2 = sext i32 %8 to i64
  %arrayidx3 = getelementptr inbounds i64, ptr %7, i64 %idxprom2
  %9 = load i64, ptr %arrayidx3, align 8
  %not = xor i64 %9, -1
  br label %cond.end

cond.end:                                         ; preds = %cond.false, %cond.true
  %cond = phi i64 [ %5, %cond.true ], [ %not, %cond.false ]
  %10 = load i64, ptr %mask.addr, align 8
  %and = and i64 %cond, %10
  store i64 %and, ptr %word, align 8
  %11 = load i64, ptr %word, align 8
  %tobool4 = icmp ne i64 %11, 0
  br i1 %tobool4, label %if.end, label %if.then

if.then:                                          ; preds = %cond.end
  br label %while.end

if.end:                                           ; preds = %cond.end
  br label %while.cond

while.cond:                                       ; preds = %while.body, %if.end
  %12 = load i64, ptr %word, align 8
  %tobool5 = icmp ne i64 %12, 0
  br i1 %tobool5, label %while.body, label %while.end

while.body:                                       ; preds = %while.cond
  %13 = getelementptr inbounds %class.anon.234, ptr %this1, i32 0, i32 2
  %14 = load i32, ptr %idx.addr, align 4
  %mul = mul nsw i32 %14, 64
  %15 = load i64, ptr %word, align 8
  %16 = call i64 @llvm.cttz.i64(i64 %15, i1 true)
  %cast = trunc i64 %16 to i32
  %add = add nsw i32 %mul, %cast
  call void @_ZZN8facebook5velox9functions12_GLOBAL__N_110applyTypedILNS0_8TypeKindE8EEEvRKNS0_17SelectivityVectorERNS0_13DecodedVectorES9_S9_RNS0_4exec7EvalCtxERNS0_10FlatVectorIbEEENKUlT_E_clIiEEDaSG_(ptr noundef nonnull align 8 dereferenceable(48) %13, i32 noundef %add)
  %17 = load i64, ptr %word, align 8
  %sub = sub i64 %17, 1
  %18 = load i64, ptr %word, align 8
  %and6 = and i64 %18, %sub
  store i64 %and6, ptr %word, align 8
  br label %while.cond, !llvm.loop !146

while.end:                                        ; preds = %while.cond, %if.then
  ret void
}