; Function Attrs: mustprogress uwtable
define internal fastcc void @_ZZN8facebook5velox4bits10forEachBitIZNS0_9functions12_GLOBAL__N_110applyTypedILNS0_8TypeKindE8EEEvRKNS0_17SelectivityVectorERNS0_13DecodedVectorESB_SB_RNS0_4exec7EvalCtxERNS0_10FlatVectorIbEEEUlT_E_EEvPKmiibSI_ENKUlimE_clEim(ptr nocapture noundef nonnull readonly align 8 dereferenceable(64) %this, i32 noundef %idx, i64 noundef %mask) unnamed_addr #0 align 2 {
entry:
  %0 = load i8, ptr %this, align 8
  %1 = and i8 %0, 1
  %2 = getelementptr inbounds i8, ptr %this, i64 8
  %3 = load ptr, ptr %2, align 8
  %idxprom2 = sext i32 %idx to i64
  %arrayidx3 = getelementptr inbounds i64, ptr %3, i64 %idxprom2
  %4 = load i64, ptr %arrayidx3, align 8
  %sext = add nsw i8 %1, -1
  %not = sext i8 %sext to i64
  %cond = xor i64 %4, %not
  %and = and i64 %cond, %mask
  %tobool4.not = icmp eq i64 %and, 0
  br i1 %tobool4.not, label %while.end, label %while.body.preheader

while.body.preheader:                             ; preds = %entry
  %5 = getelementptr inbounds i8, ptr %this, i64 16
  %mul = shl nsw i32 %idx, 6
  %6 = getelementptr inbounds i8, ptr %this, i64 24
  %7 = getelementptr inbounds i8, ptr %this, i64 56
  %8 = getelementptr inbounds i8, ptr %this, i64 32
  %9 = getelementptr inbounds i8, ptr %this, i64 40
  %10 = getelementptr inbounds i8, ptr %this, i64 48
  br label %while.body

while.body:                                       ; preds = %while.body.preheader, %_ZZN8facebook5velox9functions12_GLOBAL__N_110applyTypedILNS0_8TypeKindE8EEEvRKNS0_17SelectivityVectorERNS0_13DecodedVectorES9_S9_RNS0_4exec7EvalCtxERNS0_10FlatVectorIbEEENKUlT_E_clIiEEDaSG_.exit
  %word.0 = phi i64 [ %and6, %_ZZN8facebook5velox9functions12_GLOBAL__N_110applyTypedILNS0_8TypeKindE8EEEvRKNS0_17SelectivityVectorERNS0_13DecodedVectorES9_S9_RNS0_4exec7EvalCtxERNS0_10FlatVectorIbEEENKUlT_E_clIiEEDaSG_.exit ], [ %and, %while.body.preheader ]
  %11 = tail call i64 @llvm.cttz.i64(i64 %word.0, i1 true), !range !37
  %cast = trunc i64 %11 to i32
  %add = or disjoint i32 %mul, %cast
  %12 = load ptr, ptr %5, align 8
  %13 = load ptr, ptr %12, align 8
  %14 = load ptr, ptr %6, align 8
  %15 = load ptr, ptr %14, align 8
  %idxprom.i = sext i32 %add to i64
  %arrayidx.i = getelementptr inbounds i32, ptr %15, i64 %idxprom.i
  %16 = load i32, ptr %arrayidx.i, align 4
  %idxprom2.i = sext i32 %16 to i64
  %arrayidx3.i = getelementptr inbounds i32, ptr %13, i64 %idxprom2.i
  %17 = load i32, ptr %arrayidx3.i, align 4
  %cmp9.i = icmp sgt i32 %17, 0
  br i1 %cmp9.i, label %for.body.lr.ph.i, label %_ZZN8facebook5velox9functions12_GLOBAL__N_110applyTypedILNS0_8TypeKindE8EEEvRKNS0_17SelectivityVectorERNS0_13DecodedVectorES9_S9_RNS0_4exec7EvalCtxERNS0_10FlatVectorIbEEENKUlT_E_clIiEEDaSG_.exit

for.body.lr.ph.i:                                 ; preds = %while.body
  %18 = load ptr, ptr %8, align 8
  %19 = load ptr, ptr %18, align 8
  %arrayidx7.i = getelementptr inbounds i32, ptr %19, i64 %idxprom2.i
  %20 = load i32, ptr %arrayidx7.i, align 4
  %21 = load ptr, ptr %9, align 8
  %22 = load ptr, ptr %21, align 8
  %23 = load ptr, ptr %10, align 8
  %24 = load i64, ptr %23, align 8
  %value_10.i.i = getelementptr inbounds i8, ptr %23, i64 8
  %25 = sext i32 %20 to i64
  %wide.trip.count.i = zext nneg i32 %17 to i64
  %invariant.gep.i = getelementptr %"struct.facebook::velox::StringView", ptr %22, i64 %25
  %conv13.i.i = and i64 %24, 4294967295
  %sub.i.i = add nsw i64 %conv13.i.i, -4
  br label %for.body.i

for.body.i:                                       ; preds = %for.inc.i, %for.body.lr.ph.i
  %indvars.iv.i = phi i64 [ 0, %for.body.lr.ph.i ], [ %indvars.iv.next.i, %for.inc.i ]
  %gep.i = getelementptr %"struct.facebook::velox::StringView", ptr %invariant.gep.i, i64 %indvars.iv.i
  %26 = load i64, ptr %gep.i, align 8
  %cmp.not.i.i = icmp eq i64 %26, %24
  %27 = trunc i64 %26 to i32
  br i1 %cmp.not.i.i, label %if.end.i.i, label %for.inc.i

if.end.i.i:                                       ; preds = %for.body.i
  %cmp.i.i.i.i = icmp ult i32 %27, 13
  br i1 %cmp.i.i.i.i, label %if.then4.i.i, label %if.end9.i.i

if.then4.i.i:                                     ; preds = %if.end.i.i
  %cmp5.i.i = icmp ult i32 %27, 5
  br i1 %cmp5.i.i, label %_ZZN8facebook5velox9functions12_GLOBAL__N_110applyTypedILNS0_8TypeKindE8EEEvRKNS0_17SelectivityVectorERNS0_13DecodedVectorES9_S9_RNS0_4exec7EvalCtxERNS0_10FlatVectorIbEEENKUlT_E_clIiEEDaSG_.exit, label %_ZNK8facebook5velox10StringVieweqERKS1_.exit.i

if.end9.i.i:                                      ; preds = %if.end.i.i
  %value_.i.i = getelementptr inbounds i8, ptr %gep.i, i64 8
  %28 = load ptr, ptr %value_.i.i, align 8
  %add.ptr.i.i = getelementptr inbounds i8, ptr %28, i64 4
  %29 = load ptr, ptr %value_10.i.i, align 8
  %add.ptr11.i.i = getelementptr inbounds i8, ptr %29, i64 4
  %bcmp.i.i = tail call i32 @bcmp(ptr nonnull %add.ptr.i.i, ptr nonnull %add.ptr11.i.i, i64 %sub.i.i)
  %cmp15.i.i = icmp eq i32 %bcmp.i.i, 0
  br i1 %cmp15.i.i, label %_ZZN8facebook5velox9functions12_GLOBAL__N_110applyTypedILNS0_8TypeKindE8EEEvRKNS0_17SelectivityVectorERNS0_13DecodedVectorES9_S9_RNS0_4exec7EvalCtxERNS0_10FlatVectorIbEEENKUlT_E_clIiEEDaSG_.exit, label %for.inc.i

_ZNK8facebook5velox10StringVieweqERKS1_.exit.i:   ; preds = %if.then4.i.i
  %arrayidx.i.i.i = getelementptr inbounds i8, ptr %gep.i, i64 8
  %30 = load i64, ptr %arrayidx.i.i.i, align 8
  %31 = load i64, ptr %value_10.i.i, align 8
  %cmp8.i.i = icmp eq i64 %30, %31
  br i1 %cmp8.i.i, label %_ZZN8facebook5velox9functions12_GLOBAL__N_110applyTypedILNS0_8TypeKindE8EEEvRKNS0_17SelectivityVectorERNS0_13DecodedVectorES9_S9_RNS0_4exec7EvalCtxERNS0_10FlatVectorIbEEENKUlT_E_clIiEEDaSG_.exit, label %for.inc.i

for.inc.i:                                        ; preds = %_ZNK8facebook5velox10StringVieweqERKS1_.exit.i, %if.end9.i.i, %for.body.i
  %indvars.iv.next.i = add nuw nsw i64 %indvars.iv.i, 1
  %exitcond.not.i = icmp eq i64 %indvars.iv.next.i, %wide.trip.count.i
  br i1 %exitcond.not.i, label %_ZZN8facebook5velox9functions12_GLOBAL__N_110applyTypedILNS0_8TypeKindE8EEEvRKNS0_17SelectivityVectorERNS0_13DecodedVectorES9_S9_RNS0_4exec7EvalCtxERNS0_10FlatVectorIbEEENKUlT_E_clIiEEDaSG_.exit, label %for.body.i, !llvm.loop !130

_ZZN8facebook5velox9functions12_GLOBAL__N_110applyTypedILNS0_8TypeKindE8EEEvRKNS0_17SelectivityVectorERNS0_13DecodedVectorES9_S9_RNS0_4exec7EvalCtxERNS0_10FlatVectorIbEEENKUlT_E_clIiEEDaSG_.exit: ; preds = %if.then4.i.i, %if.end9.i.i, %_ZNK8facebook5velox10StringVieweqERKS1_.exit.i, %for.inc.i, %while.body
  %.sink13.i = phi i1 [ false, %while.body ], [ false, %for.inc.i ], [ true, %_ZNK8facebook5velox10StringVieweqERKS1_.exit.i ], [ true, %if.end9.i.i ], [ true, %if.then4.i.i ]
  %32 = load ptr, ptr %7, align 8
  tail call void @_ZN8facebook5velox10FlatVectorIbE3setEib(ptr noundef nonnull align 8 dereferenceable(184) %32, i32 noundef %add, i1 noundef zeroext %.sink13.i)
  %sub = add i64 %word.0, -1
  %and6 = and i64 %sub, %word.0
  %tobool5.old.not = icmp eq i64 %and6, 0
  br i1 %tobool5.old.not, label %while.end, label %while.body

while.end:                                        ; preds = %_ZZN8facebook5velox9functions12_GLOBAL__N_110applyTypedILNS0_8TypeKindE8EEEvRKNS0_17SelectivityVectorERNS0_13DecodedVectorES9_S9_RNS0_4exec7EvalCtxERNS0_10FlatVectorIbEEENKUlT_E_clIiEEDaSG_.exit, %entry
  ret void
}